; Function Attrs: mustprogress uwtable
define hidden noundef zeroext i1 @_ZN11OpenImageIO6v3_1_016OpenEXRCoreInput5closeEv(ptr noundef nonnull align 8 dereferenceable(280) %0) unnamed_addr #5 align 2 personality ptr @__gxx_personality_v0 {
  %2 = getelementptr inbounds nuw i8, ptr %0, i64 216
  %3 = tail call i32 @exr_finish(ptr noundef nonnull %2)
  store ptr null, ptr %2, align 8, !tbaa !138
  %4 = getelementptr inbounds nuw i8, ptr %0, i64 224
  store ptr %0, ptr %4, align 8, !tbaa !6
  %5 = getelementptr inbounds nuw i8, ptr %0, i64 232
  store ptr null, ptr %5, align 8, !tbaa !101
  %6 = getelementptr inbounds nuw i8, ptr %0, i64 240
  %7 = load ptr, ptr %6, align 8, !tbaa !100
  store ptr null, ptr %6, align 8, !tbaa !100
  %.not.i.i.i = icmp eq ptr %7, null
  br i1 %.not.i.i.i, label %_ZNSt10unique_ptrIN11OpenImageIO6v3_1_010Filesystem7IOProxyESt14default_deleteIS3_EE5resetEPS3_.exit.i, label %_ZNKSt14default_deleteIN11OpenImageIO6v3_1_010Filesystem7IOProxyEEclEPS3_.exit.i.i.i

_ZNKSt14default_deleteIN11OpenImageIO6v3_1_010Filesystem7IOProxyEEclEPS3_.exit.i.i.i: ; preds = %1
  %8 = load ptr, ptr %7, align 8, !tbaa !3
  %9 = getelementptr inbounds nuw i8, ptr %8, i64 8
  %10 = load ptr, ptr %9, align 8
  tail call void %10(ptr noundef nonnull align 8 dereferenceable(88) %7) #27
  br label %_ZNSt10unique_ptrIN11OpenImageIO6v3_1_010Filesystem7IOProxyESt14default_deleteIS3_EE5resetEPS3_.exit.i

_ZNSt10unique_ptrIN11OpenImageIO6v3_1_010Filesystem7IOProxyESt14default_deleteIS3_EE5resetEPS3_.exit.i: ; preds = %_ZNKSt14default_deleteIN11OpenImageIO6v3_1_010Filesystem7IOProxyEEclEPS3_.exit.i.i.i, %1
  %11 = getelementptr inbounds nuw i8, ptr %0, i64 256
  %12 = load ptr, ptr %11, align 8, !tbaa !105
  %13 = getelementptr inbounds nuw i8, ptr %0, i64 264
  %14 = load ptr, ptr %13, align 8, !tbaa !107
  %.not.i.i1.i = icmp eq ptr %14, %12
  br i1 %.not.i.i1.i, label %_ZN11OpenImageIO6v3_1_016OpenEXRCoreInput4initEv.exit, label %15

15:                                               ; preds = %_ZNSt10unique_ptrIN11OpenImageIO6v3_1_010Filesystem7IOProxyESt14default_deleteIS3_EE5resetEPS3_.exit.i
  store ptr %12, ptr %13, align 8, !tbaa !107
  br label %_ZN11OpenImageIO6v3_1_016OpenEXRCoreInput4initEv.exit

_ZN11OpenImageIO6v3_1_016OpenEXRCoreInput4initEv.exit: ; preds = %_ZNSt10unique_ptrIN11OpenImageIO6v3_1_010Filesystem7IOProxyESt14default_deleteIS3_EE5resetEPS3_.exit.i, %15
  ret i1 true
}